Certificate:
    Data:
        Version: 3 (0x2)
        Serial Number:
            82:13:d6:3f:58:cd:79:0b
        Signature Algorithm: sha1WithRSAEncryption
        Issuer: C=CA, ST=Ontario, O=Demo Root Authority Corp, CN=Demo CA Guys/emailAddress=demo@demoroot.dom
        Validity
            Not Before: Feb  4 04:05:50 2012 GMT
            Not After : Feb  3 04:05:50 2013 GMT
        Subject: C=CA, ST=Quebec, L=Montreal, O=Crypt Client, CN=localhost/emailAddress=admin@server.sample.dom
        Subject Public Key Info:
            Public Key Algorithm: rsaEncryption
                Public-Key: (1024 bit)
                Modulus:
                    00:f1:4a:64:89:8a:d2:da:f5:73:35:f2:ca:b6:15:
                    f0:a0:14:80:99:f3:a0:be:73:67:61:5a:1c:c9:65:
                    bf:55:78:2c:87:d1:35:95:f6:97:a1:4e:d0:c5:1f:
                    e0:be:9d:12:20:19:96:ba:10:e8:cd:e0:56:77:1b:
                    ff:b7:90:21:cb:eb:83:8a:f4:d8:e0:07:2b:f2:a9:
                    a8:de:d4:b3:eb:e6:e0:05:e4:2e:52:78:6c:81:fd:
                    15:5b:f5:ef:07:4a:67:cf:62:93:c2:c5:62:b7:69:
                    b7:58:96:54:ff:fe:01:67:07:10:3c:b2:65:3b:8b:
                    ce:96:d7:2f:18:82:17:10:f7
                Exponent: 65537 (0x10001)
        X509v3 extensions:
            X509v3 Basic Constraints: 
                CA:FALSE
            Netscape Comment: 
                OpenSSL Generated Certificate
            X509v3 Subject Key Identifier: 
                BE:D5:10:E0:83:1A:F5:5A:7B:D3:35:B7:3B:A6:6D:5A:13:D6:4C:69
            X509v3 Authority Key Identifier: 
                keyid:59:E1:8D:8E:B1:D0:7D:9A:39:24:6D:7C:0D:8E:DB:E9:37:AE:D1:5D

    Signature Algorithm: sha1WithRSAEncryption
        90:e9:95:3d:62:6e:86:6c:f7:c4:b9:6a:00:08:b6:32:f7:a9:
        e8:be:c1:4e:06:02:12:34:62:6a:e5:79:f2:8d:93:ea:ba:7e:
        28:20:eb:40:37:42:40:5f:8b:e7:32:ce:63:60:60:b3:88:8f:
        33:40:aa:8c:e1:84:5b:ec:e6:0b:55:2c:0d:6e:e9:fd:d0:2d:
        20:5a:9d:79:e8:5d:b1:12:b6:4e:89:0e:49:d7:64:e9:08:a8:
        a5:8c:26:95:bb:57:bd:4a:f1:ae:d0:1d:4e:f0:7c:58:a5:64:
        bd:cd:5e:53:cd:0b:51:13:2a:43:6d:7c:bf:77:8b:ee:b2:b0:
        46:9c
-----BEGIN CERTIFICATE-----
MIIC+TCCAmKgAwIBAgIJAIIT1j9YzXkLMA0GCSqGSIb3DQEBBQUAMHsxCzAJBgNV
BAYTAkNBMRAwDgYDVQQIDAdPbnRhcmlvMSEwHwYDVQQKDBhEZW1vIFJvb3QgQXV0
aG9yaXR5IENvcnAxFTATBgNVBAMMDERlbW8gQ0EgR3V5czEgMB4GCSqGSIb3DQEJ
ARYRZGVtb0BkZW1vcm9vdC5kb20wHhcNMTIwMjA0MDQwNTUwWhcNMTMwMjAzMDQw
NTUwWjCBhDELMAkGA1UEBhMCQ0ExDzANBgNVBAgMBlF1ZWJlYzERMA8GA1UEBwwI
TW9udHJlYWwxFTATBgNVBAoMDENyeXB0IENsaWVudDESMBAGA1UEAwwJbG9jYWxo
b3N0MSYwJAYJKoZIhvcNAQkBFhdhZG1pbkBzZXJ2ZXIuc2FtcGxlLmRvbTCBnzAN
BgkqhkiG9w0BAQEFAAOBjQAwgYkCgYEA8UpkiYrS2vVzNfLKthXwoBSAmfOgvnNn
YVocyWW/VXgsh9E1lfaXoU7QxR/gvp0SIBmWuhDozeBWdxv/t5Ahy+uDivTY4Acr
8qmo3tSz6+bgBeQuUnhsgf0VW/XvB0pnz2KTwsVit2m3WJZU//4BZwcQPLJlO4vO
ltcvGIIXEPcCAwEAAaN7MHkwCQYDVR0TBAIwADAsBglghkgBhvhCAQ0EHxYdT3Bl
blNTTCBHZW5lcmF0ZWQgQ2VydGlmaWNhdGUwHQYDVR0OBBYEFL7VEOCDGvVae9M1
tzumbVoT1kxpMB8GA1UdIwQYMBaAFFnhjY6x0H2aOSRtfA2O2+k3rtFdMA0GCSqG
SIb3DQEBBQUAA4GBAJDplT1iboZs98S5agAItjL3qei+wU4GAhI0YmrlefKNk+q6
figg60A3QkBfi+cyzmNgYLOIjzNAqozhhFvs5gtVLA1u6f3QLSBanXnoXbEStk6J
DknXZOkIqKWMJpW7V71K8a7QHU7wfFilZL3NXlPNC1ETKkNtfL93i+6ysEac
-----END CERTIFICATE-----
