Certificate:
    Data:
        Version: 3 (0x2)
        Serial Number:
            82:13:d6:3f:58:cd:79:0a
        Signature Algorithm: sha1WithRSAEncryption
        Issuer: C=CA, ST=Ontario, O=Demo Root Authority Corp, CN=Demo CA Guys/emailAddress=demo@demoroot.dom
        Validity
            Not Before: Feb  4 04:00:41 2012 GMT
            Not After : Feb  1 04:00:41 2022 GMT
        Subject: C=CA, ST=Ontario, O=Demo Root Authority Corp, CN=Demo CA Guys/emailAddress=demo@demoroot.dom
        Subject Public Key Info:
            Public Key Algorithm: rsaEncryption
                Public-Key: (1024 bit)
                Modulus:
                    00:e7:d4:5b:e7:e0:31:9f:a1:a9:5e:7c:61:98:98:
                    72:fc:c6:dd:5d:2f:80:7e:88:ba:86:46:16:01:26:
                    33:31:c0:4e:46:1c:05:25:d1:49:7a:0c:b2:03:0f:
                    f5:6c:49:66:ab:3c:37:29:1b:4f:18:d0:80:a5:5b:
                    9a:8f:03:c3:f8:8c:9e:99:fa:1a:58:2e:f7:52:03:
                    c7:70:9b:15:57:e7:64:21:b4:cc:5c:47:db:38:08:
                    4b:2c:5b:a2:30:5e:9b:84:85:45:a8:a8:1e:8e:7a:
                    4b:9c:a0:51:28:d9:1a:4e:a3:d7:5d:cd:21:b1:aa:
                    32:41:57:e7:85:c7:2f:2d:e5
                Exponent: 65537 (0x10001)
        X509v3 extensions:
            X509v3 Subject Key Identifier: 
                59:E1:8D:8E:B1:D0:7D:9A:39:24:6D:7C:0D:8E:DB:E9:37:AE:D1:5D
            X509v3 Authority Key Identifier: 
                keyid:59:E1:8D:8E:B1:D0:7D:9A:39:24:6D:7C:0D:8E:DB:E9:37:AE:D1:5D

            X509v3 Basic Constraints: 
                CA:TRUE
    Signature Algorithm: sha1WithRSAEncryption
        6c:f1:c6:fd:50:2c:31:33:9e:6b:bf:d9:9b:99:06:be:b9:07:
        6a:19:51:83:74:b6:d4:21:db:3b:10:95:b6:5e:39:b0:88:4a:
        04:7a:0d:01:be:af:ed:0e:ff:d4:37:71:13:2a:82:b8:e7:6a:
        21:db:47:15:2c:5e:35:38:9e:b9:64:10:c0:81:d0:d2:85:17:
        d2:73:da:ec:e0:b5:19:c8:3d:c8:b5:7b:64:7c:9a:32:76:3e:
        22:03:3c:2f:44:c5:cf:00:05:36:d8:b4:07:eb:38:19:a4:39:
        0d:8b:7d:bc:23:95:7d:99:92:09:b3:79:27:31:0d:a1:c2:69:
        5a:f9
-----BEGIN CERTIFICATE-----
MIICxDCCAi2gAwIBAgIJAIIT1j9YzXkKMA0GCSqGSIb3DQEBBQUAMHsxCzAJBgNV
BAYTAkNBMRAwDgYDVQQIDAdPbnRhcmlvMSEwHwYDVQQKDBhEZW1vIFJvb3QgQXV0
aG9yaXR5IENvcnAxFTATBgNVBAMMDERlbW8gQ0EgR3V5czEgMB4GCSqGSIb3DQEJ
ARYRZGVtb0BkZW1vcm9vdC5kb20wHhcNMTIwMjA0MDQwMDQxWhcNMjIwMjAxMDQw
MDQxWjB7MQswCQYDVQQGEwJDQTEQMA4GA1UECAwHT250YXJpbzEhMB8GA1UECgwY
RGVtbyBSb290IEF1dGhvcml0eSBDb3JwMRUwEwYDVQQDDAxEZW1vIENBIEd1eXMx
IDAeBgkqhkiG9w0BCQEWEWRlbW9AZGVtb3Jvb3QuZG9tMIGfMA0GCSqGSIb3DQEB
AQUAA4GNADCBiQKBgQDn1Fvn4DGfoalefGGYmHL8xt1dL4B+iLqGRhYBJjMxwE5G
HAUl0Ul6DLIDD/VsSWarPDcpG08Y0IClW5qPA8P4jJ6Z+hpYLvdSA8dwmxVX52Qh
tMxcR9s4CEssW6IwXpuEhUWoqB6OekucoFEo2RpOo9ddzSGxqjJBV+eFxy8t5QID
AQABo1AwTjAdBgNVHQ4EFgQUWeGNjrHQfZo5JG18DY7b6Teu0V0wHwYDVR0jBBgw
FoAUWeGNjrHQfZo5JG18DY7b6Teu0V0wDAYDVR0TBAUwAwEB/zANBgkqhkiG9w0B
AQUFAAOBgQBs8cb9UCwxM55rv9mbmQa+uQdqGVGDdLbUIds7EJW2XjmwiEoEeg0B
vq/tDv/UN3ETKoK452oh20cVLF41OJ65ZBDAgdDShRfSc9rs4LUZyD3ItXtkfJoy
dj4iAzwvRMXPAAU22LQH6zgZpDkNi328I5V9mZIJs3knMQ2hwmla+Q==
-----END CERTIFICATE-----
